	.file	"main.c"
	.text
	.globl	main
	.type	main, @function
main:
.LFB0:
	.cfi_startproc
	pushq	%rbp
	.cfi_def_cfa_offset 16
	.cfi_offset 6, -16
	movq	%rsp, %rbp
	.cfi_def_cfa_register 6
	subq	$32, %rsp
	movl	%edi, -4(%rbp)
	movq	%rsi, -16(%rbp)
	movq	%rdx, -24(%rbp)
	movq	-16(%rbp), %rdx
	movl	-4(%rbp), %eax
	movq	%rdx, %rsi
	movl	%eax, %edi
	call	init_all
	movl	$0, %edi
	call	print_share_file@PLT
	call	getchar@PLT
	call	alx_resume_curses@PLT
	call	menu_main@PLT
	call	alx_pause_curses@PLT
	movl	$0, %eax
	leave
	.cfi_def_cfa 7, 8
	ret
	.cfi_endproc
.LFE0:
	.size	main, .-main
	.type	init_all, @function
init_all:
.LFB1:
	.cfi_startproc
	pushq	%rbp
	.cfi_def_cfa_offset 16
	.cfi_offset 6, -16
	movq	%rsp, %rbp
	.cfi_def_cfa_register 6
	subq	$16, %rsp
	movl	%edi, -4(%rbp)
	movq	%rsi, -16(%rbp)
	call	alx_start_curses@PLT
	call	alx_pause_curses@PLT
	call	about_init@PLT
	movq	-16(%rbp), %rdx
	movl	-4(%rbp), %eax
	movq	%rdx, %rsi
	movl	%eax, %edi
	call	parser@PLT
	nop
	leave
	.cfi_def_cfa 7, 8
	ret
	.cfi_endproc
.LFE1:
	.size	init_all, .-init_all
	.type	cleanup, @function
cleanup:
.LFB2:
	.cfi_startproc
	pushq	%rbp
	.cfi_def_cfa_offset 16
	.cfi_offset 6, -16
	movq	%rsp, %rbp
	.cfi_def_cfa_register 6
	call	alx_resume_curses@PLT
	call	alx_end_curses@PLT
	nop
	popq	%rbp
	.cfi_def_cfa 7, 8
	ret
	.cfi_endproc
.LFE2:
	.size	cleanup, .-cleanup
	.ident	"GCC: (Debian 8.2.0-8) 8.2.0"
	.section	.note.GNU-stack,"",@progbits
